target datalayout = "e-m:e-p270:32:32-p271:32:32-p272:64:64-i64:64-i128:128-f80:128-n8:16:32:64-S128"
target triple = "x86_64-pc-linux-gnu"

%struct.X509_algor_st = type { ptr, ptr }
%struct.asn1_string_st = type { i32, i32, ptr, i64 }
%struct.x509_st = type { %struct.x509_cinf_st, %struct.X509_algor_st, %struct.asn1_string_st, %struct.x509_sig_info_st, %struct.CRYPTO_REF_COUNT, %struct.crypto_ex_data_st, i64, i64, i32, i32, i32, i32, ptr, ptr, ptr, ptr, ptr, ptr, ptr, ptr, [20 x i8], ptr, ptr, i32, ptr, ptr, ptr }
%struct.x509_cinf_st = type { ptr, %struct.asn1_string_st, %struct.X509_algor_st, ptr, %struct.X509_val_st, ptr, ptr, ptr, ptr, ptr, %struct.ASN1_ENCODING_st }
%struct.X509_val_st = type { ptr, ptr }
%struct.ASN1_ENCODING_st = type { ptr, i64, i32 }
%struct.x509_sig_info_st = type { i32, i32, i32, i32 }
%struct.CRYPTO_REF_COUNT = type { i32 }
%struct.crypto_ex_data_st = type { ptr, ptr }

; Function Attrs: nounwind uwtable
define i32 @OCSP_basic_sign(ptr noundef %0, ptr noundef %1, ptr noundef %2, ptr noundef %3, ptr noundef %4, i64 noundef %5) #0 {
  %7 = alloca i32, align 4
  %8 = alloca ptr, align 8
  %9 = alloca ptr, align 8
  %10 = alloca ptr, align 8
  %11 = alloca ptr, align 8
  %12 = alloca ptr, align 8
  %13 = alloca i64, align 8
  %14 = alloca ptr, align 8
  %15 = alloca ptr, align 8
  %16 = alloca i32, align 4
  %17 = alloca i32, align 4
  store ptr %0, ptr %8, align 8, !tbaa !40
  store ptr %1, ptr %9, align 8, !tbaa !71
  store ptr %2, ptr %10, align 8, !tbaa !77
  store ptr %3, ptr %11, align 8, !tbaa !106
  store ptr %4, ptr %12, align 8, !tbaa !75
  store i64 %5, ptr %13, align 8, !tbaa !76
  call void @llvm.lifetime.start.p0(i64 8, ptr %14) #5
  %18 = call ptr @EVP_MD_CTX_new()
  store ptr %18, ptr %14, align 8, !tbaa !73
  call void @llvm.lifetime.start.p0(i64 8, ptr %15) #5
  store ptr null, ptr %15, align 8, !tbaa !108
  call void @llvm.lifetime.start.p0(i64 4, ptr %16) #5
  %19 = load ptr, ptr %14, align 8, !tbaa !73
  %20 = icmp eq ptr %19, null
  br i1 %20, label %21, label %22

21:                                               ; preds = %6
  store i32 0, ptr %7, align 4
  store i32 1, ptr %17, align 4
  br label %46

22:                                               ; preds = %6
  %23 = load ptr, ptr %14, align 8, !tbaa !73
  %24 = load ptr, ptr %11, align 8, !tbaa !106
  %25 = call ptr @EVP_MD_get0_name(ptr noundef %24)
  %26 = load ptr, ptr %9, align 8, !tbaa !71
  %27 = getelementptr inbounds nuw %struct.x509_st, ptr %26, i32 0, i32 25
  %28 = load ptr, ptr %27, align 8, !tbaa !84
  %29 = load ptr, ptr %9, align 8, !tbaa !71
  %30 = getelementptr inbounds nuw %struct.x509_st, ptr %29, i32 0, i32 26
  %31 = load ptr, ptr %30, align 8, !tbaa !104
  %32 = load ptr, ptr %10, align 8, !tbaa !77
  %33 = call i32 @EVP_DigestSignInit_ex(ptr noundef %23, ptr noundef %15, ptr noundef %25, ptr noundef %28, ptr noundef %31, ptr noundef %32, ptr noundef null)
  %34 = icmp ne i32 %33, 0
  br i1 %34, label %37, label %35

35:                                               ; preds = %22
  %36 = load ptr, ptr %14, align 8, !tbaa !73
  call void @EVP_MD_CTX_free(ptr noundef %36)
  store i32 0, ptr %7, align 4
  store i32 1, ptr %17, align 4
  br label %46

37:                                               ; preds = %22
  %38 = load ptr, ptr %8, align 8, !tbaa !40
  %39 = load ptr, ptr %9, align 8, !tbaa !71
  %40 = load ptr, ptr %14, align 8, !tbaa !73
  %41 = load ptr, ptr %12, align 8, !tbaa !75
  %42 = load i64, ptr %13, align 8, !tbaa !76
  %43 = call i32 @OCSP_basic_sign_ctx(ptr noundef %38, ptr noundef %39, ptr noundef %40, ptr noundef %41, i64 noundef %42)
  store i32 %43, ptr %16, align 4, !tbaa !17
  %44 = load ptr, ptr %14, align 8, !tbaa !73
  call void @EVP_MD_CTX_free(ptr noundef %44)
  %45 = load i32, ptr %16, align 4, !tbaa !17
  store i32 %45, ptr %7, align 4
  store i32 1, ptr %17, align 4
  br label %46

46:                                               ; preds = %37, %35, %21
  call void @llvm.lifetime.end.p0(i64 4, ptr %16) #5
  call void @llvm.lifetime.end.p0(i64 8, ptr %15) #5
  call void @llvm.lifetime.end.p0(i64 8, ptr %14) #5
  %47 = load i32, ptr %7, align 4
  ret i32 %47
}