; Function Attrs: nounwind uwtable
define range(i32 0, 2) i32 @OCSP_basic_sign(ptr noundef %0, ptr noundef %1, ptr noundef %2, ptr noundef %3, ptr noundef %4, i64 noundef %5) local_unnamed_addr #0 {
  %7 = alloca ptr, align 8
  %8 = tail call ptr @EVP_MD_CTX_new() #6
  call void @llvm.lifetime.start.p0(i64 8, ptr nonnull %7) #6
  store ptr null, ptr %7, align 8, !tbaa !75
  %9 = icmp eq ptr %8, null
  br i1 %9, label %19, label %10

10:                                               ; preds = %6
  %11 = tail call ptr @EVP_MD_get0_name(ptr noundef %3) #6
  %12 = getelementptr inbounds nuw i8, ptr %1, i64 368
  %13 = load ptr, ptr %12, align 8, !tbaa !54
  %14 = getelementptr inbounds nuw i8, ptr %1, i64 376
  %15 = load ptr, ptr %14, align 8, !tbaa !74
  %16 = call i32 @EVP_DigestSignInit_ex(ptr noundef nonnull %8, ptr noundef nonnull %7, ptr noundef %11, ptr noundef %13, ptr noundef %15, ptr noundef %2, ptr noundef null) #6
  %.not = icmp eq i32 %16, 0
  br i1 %.not, label %.sink.split, label %17

17:                                               ; preds = %10
  %18 = call i32 @OCSP_basic_sign_ctx(ptr noundef %0, ptr noundef nonnull %1, ptr noundef nonnull %8, ptr noundef %4, i64 noundef %5)
  br label %.sink.split

.sink.split:                                      ; preds = %10, %17
  %.0.ph = phi i32 [ %18, %17 ], [ 0, %10 ]
  call void @EVP_MD_CTX_free(ptr noundef nonnull %8) #6
  br label %19

19:                                               ; preds = %.sink.split, %6
  %.0 = phi i32 [ 0, %6 ], [ %.0.ph, %.sink.split ]
  call void @llvm.lifetime.end.p0(i64 8, ptr nonnull %7) #6
  ret i32 %.0
}